target datalayout = "e-m:e-p270:32:32-p271:32:32-p272:64:64-i64:64-i128:128-f80:128-n8:16:32:64-S128"
target triple = "x86_64-unknown-linux-gnu"

%"class.icu_75::LocalPointer" = type { %"class.icu_75::LocalPointerBase" }
%"class.icu_75::LocalPointerBase" = type { ptr }
%"class.icu_75::SPUStringPool" = type { ptr, ptr }
%"class.icu_75::LocalPointer.2" = type { %"class.icu_75::LocalPointerBase.3" }
%"class.icu_75::LocalPointerBase.3" = type { ptr }

@_ZN6icu_759SPUStringC1ENS_12LocalPointerINS_13UnicodeStringEEE = unnamed_addr alias void (ptr, ptr), ptr @_ZN6icu_759SPUStringC2ENS_12LocalPointerINS_13UnicodeStringEEE
@_ZN6icu_759SPUStringD1Ev = unnamed_addr alias void (ptr), ptr @_ZN6icu_759SPUStringD2Ev

; Function Attrs: mustprogress nounwind uwtable
define linkonce_odr void @_ZN6icu_7516LocalPointerBaseINS_9SPUStringEED2Ev(ptr noundef nonnull align 8 dereferenceable(8) %this) unnamed_addr #1 comdat align 2 {
entry:
  %this.addr = alloca ptr, align 8
  store ptr %this, ptr %this.addr, align 8
  ret void
}

; Function Attrs: mustprogress nounwind uwtable
define linkonce_odr void @_ZN6icu_7516LocalPointerBaseINS_13UnicodeStringEED2Ev(ptr noundef nonnull align 8 dereferenceable(8) %this) unnamed_addr #1 comdat align 2 {
entry:
  %this.addr = alloca ptr, align 8
  store ptr %this, ptr %this.addr, align 8
  ret void
}

; Function Attrs: mustprogress nounwind uwtable
define internal noundef signext i8 @_ZL9U_SUCCESS10UErrorCode(i32 noundef %code) #1 {
entry:
  %code.addr = alloca i32, align 4
  store i32 %code, ptr %code.addr, align 4
  %0 = load i32, ptr %code.addr, align 4
  %cmp = icmp sle i32 %0, 0
  %conv = zext i1 %cmp to i8
  ret i8 %conv
}

; Function Attrs: mustprogress nounwind uwtable
define linkonce_odr void @_ZN6icu_7516LocalPointerBaseINS_9SPUStringEEC2EPS1_(ptr noundef nonnull align 8 dereferenceable(8) %this, ptr noundef %p) unnamed_addr #1 comdat align 2 {
entry:
  %this.addr = alloca ptr, align 8
  %p.addr = alloca ptr, align 8
  store ptr %this, ptr %this.addr, align 8
  store ptr %p, ptr %p.addr, align 8
  %this1 = load ptr, ptr %this.addr, align 8
  %ptr = getelementptr inbounds %"class.icu_75::LocalPointerBase.3", ptr %this1, i32 0, i32 0
  %0 = load ptr, ptr %p.addr, align 8
  store ptr %0, ptr %ptr, align 8
  ret void
}

; Function Attrs: mustprogress nounwind uwtable
define linkonce_odr void @_ZN6icu_7516LocalPointerBaseINS_13UnicodeStringEEC2EPS1_(ptr noundef nonnull align 8 dereferenceable(8) %this, ptr noundef %p) unnamed_addr #1 comdat align 2 {
entry:
  %this.addr = alloca ptr, align 8
  %p.addr = alloca ptr, align 8
  store ptr %this, ptr %this.addr, align 8
  store ptr %p, ptr %p.addr, align 8
  %this1 = load ptr, ptr %this.addr, align 8
  %ptr = getelementptr inbounds %"class.icu_75::LocalPointerBase", ptr %this1, i32 0, i32 0
  %0 = load ptr, ptr %p.addr, align 8
  store ptr %0, ptr %ptr, align 8
  ret void
}

; Function Attrs: mustprogress nounwind uwtable
define linkonce_odr void @_ZN6icu_7512LocalPointerINS_9SPUStringEED2Ev(ptr noundef nonnull align 8 dereferenceable(8) %this) unnamed_addr #1 comdat align 2 {
entry:
  %this.addr = alloca ptr, align 8
  store ptr %this, ptr %this.addr, align 8
  %this1 = load ptr, ptr %this.addr, align 8
  %ptr = getelementptr inbounds %"class.icu_75::LocalPointerBase.3", ptr %this1, i32 0, i32 0
  %0 = load ptr, ptr %ptr, align 8
  %isnull = icmp eq ptr %0, null
  br i1 %isnull, label %delete.end, label %delete.notnull

delete.notnull:                                   ; preds = %entry
  call void @_ZN6icu_759SPUStringD1Ev(ptr noundef nonnull align 8 dereferenceable(12) %0) #6
  call void @_ZN6icu_757UMemorydlEPv(ptr noundef %0) #6
  br label %delete.end

delete.end:                                       ; preds = %delete.notnull, %entry
  call void @_ZN6icu_7516LocalPointerBaseINS_9SPUStringEED2Ev(ptr noundef nonnull align 8 dereferenceable(8) %this1) #6
  ret void
}

; Function Attrs: mustprogress nounwind uwtable
define linkonce_odr noundef ptr @_ZN6icu_7516LocalPointerBaseINS_9SPUStringEE6orphanEv(ptr noundef nonnull align 8 dereferenceable(8) %this) #1 comdat align 2 {
entry:
  %this.addr = alloca ptr, align 8
  %p = alloca ptr, align 8
  store ptr %this, ptr %this.addr, align 8
  %this1 = load ptr, ptr %this.addr, align 8
  %ptr = getelementptr inbounds %"class.icu_75::LocalPointerBase.3", ptr %this1, i32 0, i32 0
  %0 = load ptr, ptr %ptr, align 8
  store ptr %0, ptr %p, align 8
  %ptr2 = getelementptr inbounds %"class.icu_75::LocalPointerBase.3", ptr %this1, i32 0, i32 0
  store ptr null, ptr %ptr2, align 8
  %1 = load ptr, ptr %p, align 8
  ret ptr %1
}

; Function Attrs: mustprogress nounwind uwtable
define linkonce_odr noundef ptr @_ZNK6icu_7516LocalPointerBaseINS_9SPUStringEE8getAliasEv(ptr noundef nonnull align 8 dereferenceable(8) %this) #1 comdat align 2 {
entry:
  %this.addr = alloca ptr, align 8
  store ptr %this, ptr %this.addr, align 8
  %this1 = load ptr, ptr %this.addr, align 8
  %ptr = getelementptr inbounds %"class.icu_75::LocalPointerBase.3", ptr %this1, i32 0, i32 0
  %0 = load ptr, ptr %ptr, align 8
  ret ptr %0
}

; Function Attrs: mustprogress nounwind uwtable
define linkonce_odr void @_ZN6icu_7512LocalPointerINS_13UnicodeStringEED2Ev(ptr noundef nonnull align 8 dereferenceable(8) %this) unnamed_addr #1 comdat align 2 {
entry:
  %this.addr = alloca ptr, align 8
  store ptr %this, ptr %this.addr, align 8
  %this1 = load ptr, ptr %this.addr, align 8
  %ptr = getelementptr inbounds %"class.icu_75::LocalPointerBase", ptr %this1, i32 0, i32 0
  %0 = load ptr, ptr %ptr, align 8
  %isnull = icmp eq ptr %0, null
  br i1 %isnull, label %delete.end, label %delete.notnull

delete.notnull:                                   ; preds = %entry
  %vtable = load ptr, ptr %0, align 8
  %vfn = getelementptr inbounds ptr, ptr %vtable, i64 1
  %1 = load ptr, ptr %vfn, align 8
  call void %1(ptr noundef nonnull align 8 dereferenceable(64) %0) #6
  br label %delete.end

delete.end:                                       ; preds = %delete.notnull, %entry
  call void @_ZN6icu_7516LocalPointerBaseINS_13UnicodeStringEED2Ev(ptr noundef nonnull align 8 dereferenceable(8) %this1) #6
  ret void
}

; Function Attrs: mustprogress uwtable
define linkonce_odr void @_ZN6icu_7512LocalPointerINS_9SPUStringEEC2EPS1_R10UErrorCode(ptr noundef nonnull align 8 dereferenceable(8) %this, ptr noundef %p, ptr noundef nonnull align 4 dereferenceable(4) %errorCode) unnamed_addr #0 comdat align 2 {
entry:
  %this.addr = alloca ptr, align 8
  %p.addr = alloca ptr, align 8
  %errorCode.addr = alloca ptr, align 8
  store ptr %this, ptr %this.addr, align 8
  store ptr %p, ptr %p.addr, align 8
  store ptr %errorCode, ptr %errorCode.addr, align 8
  %this1 = load ptr, ptr %this.addr, align 8
  %0 = load ptr, ptr %p.addr, align 8
  call void @_ZN6icu_7516LocalPointerBaseINS_9SPUStringEEC2EPS1_(ptr noundef nonnull align 8 dereferenceable(8) %this1, ptr noundef %0)
  %1 = load ptr, ptr %p.addr, align 8
  %cmp = icmp eq ptr %1, null
  br i1 %cmp, label %land.lhs.true, label %if.end

land.lhs.true:                                    ; preds = %entry
  %2 = load ptr, ptr %errorCode.addr, align 8
  %3 = load i32, ptr %2, align 4
  %call = call noundef signext i8 @_ZL9U_SUCCESS10UErrorCode(i32 noundef %3)
  %tobool = icmp ne i8 %call, 0
  br i1 %tobool, label %if.then, label %if.end

if.then:                                          ; preds = %land.lhs.true
  %4 = load ptr, ptr %errorCode.addr, align 8
  store i32 7, ptr %4, align 4
  br label %if.end

if.end:                                           ; preds = %if.then, %land.lhs.true, %entry
  ret void
}

; Function Attrs: mustprogress nounwind uwtable
define linkonce_odr void @_ZN6icu_7512LocalPointerINS_13UnicodeStringEEC2EOS2_(ptr noundef nonnull align 8 dereferenceable(8) %this, ptr noundef nonnull align 8 dereferenceable(8) %src) unnamed_addr #1 comdat align 2 {
entry:
  %this.addr = alloca ptr, align 8
  %src.addr = alloca ptr, align 8
  store ptr %this, ptr %this.addr, align 8
  store ptr %src, ptr %src.addr, align 8
  %this1 = load ptr, ptr %this.addr, align 8
  %0 = load ptr, ptr %src.addr, align 8
  %ptr = getelementptr inbounds %"class.icu_75::LocalPointerBase", ptr %0, i32 0, i32 0
  %1 = load ptr, ptr %ptr, align 8
  call void @_ZN6icu_7516LocalPointerBaseINS_13UnicodeStringEEC2EPS1_(ptr noundef nonnull align 8 dereferenceable(8) %this1, ptr noundef %1)
  %2 = load ptr, ptr %src.addr, align 8
  %ptr2 = getelementptr inbounds %"class.icu_75::LocalPointerBase", ptr %2, i32 0, i32 0
  store ptr null, ptr %ptr2, align 8
  ret void
}

; Function Attrs: mustprogress nounwind uwtable
define internal noundef signext i8 @_ZL9U_FAILURE10UErrorCode(i32 noundef %code) #1 {
entry:
  %code.addr = alloca i32, align 4
  store i32 %code, ptr %code.addr, align 4
  %0 = load i32, ptr %code.addr, align 4
  %cmp = icmp sgt i32 %0, 0
  %conv = zext i1 %cmp to i8
  ret i8 %conv
}

; Function Attrs: mustprogress uwtable
define linkonce_odr void @_ZN6icu_7512LocalPointerINS_13UnicodeStringEEC2EPS1_(ptr noundef nonnull align 8 dereferenceable(8) %this, ptr noundef %p) unnamed_addr #0 comdat align 2 {
entry:
  %this.addr = alloca ptr, align 8
  %p.addr = alloca ptr, align 8
  store ptr %this, ptr %this.addr, align 8
  store ptr %p, ptr %p.addr, align 8
  %this1 = load ptr, ptr %this.addr, align 8
  %0 = load ptr, ptr %p.addr, align 8
  call void @_ZN6icu_7516LocalPointerBaseINS_13UnicodeStringEEC2EPS1_(ptr noundef nonnull align 8 dereferenceable(8) %this1, ptr noundef %0)
  ret void
}

; Function Attrs: mustprogress uwtable
define noundef ptr @_ZN6icu_7513SPUStringPool9addStringEPNS_13UnicodeStringER10UErrorCode(ptr noundef nonnull align 8 dereferenceable(16) %this, ptr noundef %src, ptr noundef nonnull align 4 dereferenceable(4) %status) #0 align 2 personality ptr @__gxx_personality_v0 {
entry:
  %retval = alloca ptr, align 8
  %this.addr = alloca ptr, align 8
  %src.addr = alloca ptr, align 8
  %status.addr = alloca ptr, align 8
  %lpSrc = alloca %"class.icu_75::LocalPointer", align 8
  %exn.slot = alloca ptr, align 8
  %ehselector.slot = alloca i32, align 4
  %cleanup.dest.slot = alloca i32, align 4
  %hashedString = alloca ptr, align 8
  %spuStr = alloca %"class.icu_75::LocalPointer.2", align 8
  %saved-rvalue = alloca ptr, align 8
  %cleanup.cond = alloca i1, align 1
  %agg.tmp = alloca %"class.icu_75::LocalPointer", align 8
  %cleanup.cond7 = alloca i1, align 1
  store ptr %this, ptr %this.addr, align 8
  store ptr %src, ptr %src.addr, align 8
  store ptr %status, ptr %status.addr, align 8
  %this1 = load ptr, ptr %this.addr, align 8
  %0 = load ptr, ptr %src.addr, align 8
  call void @_ZN6icu_7512LocalPointerINS_13UnicodeStringEEC2EPS1_(ptr noundef nonnull align 8 dereferenceable(8) %lpSrc, ptr noundef %0)
  %1 = load ptr, ptr %status.addr, align 8
  %2 = load i32, ptr %1, align 4
  %call = invoke noundef signext i8 @_ZL9U_FAILURE10UErrorCode(i32 noundef %2)
          to label %invoke.cont unwind label %lpad

invoke.cont:                                      ; preds = %entry
  %tobool = icmp ne i8 %call, 0
  br i1 %tobool, label %if.then, label %if.end

if.then:                                          ; preds = %invoke.cont
  store ptr null, ptr %retval, align 8
  store i32 1, ptr %cleanup.dest.slot, align 4
  br label %cleanup31

lpad:                                             ; preds = %if.end, %entry
  %3 = landingpad { ptr, i32 }
          cleanup
  %4 = extractvalue { ptr, i32 } %3, 0
  store ptr %4, ptr %exn.slot, align 8
  %5 = extractvalue { ptr, i32 } %3, 1
  store i32 %5, ptr %ehselector.slot, align 4
  br label %ehcleanup

if.end:                                           ; preds = %invoke.cont
  %fHash = getelementptr inbounds %"class.icu_75::SPUStringPool", ptr %this1, i32 0, i32 1
  %6 = load ptr, ptr %fHash, align 8
  %7 = load ptr, ptr %src.addr, align 8
  %call3 = invoke ptr @uhash_get_75(ptr noundef %6, ptr noundef %7)
          to label %invoke.cont2 unwind label %lpad

invoke.cont2:                                     ; preds = %if.end
  store ptr %call3, ptr %hashedString, align 8
  %8 = load ptr, ptr %hashedString, align 8
  %cmp = icmp ne ptr %8, null
  br i1 %cmp, label %if.then4, label %if.end5

if.then4:                                         ; preds = %invoke.cont2
  %9 = load ptr, ptr %hashedString, align 8
  store ptr %9, ptr %retval, align 8
  store i32 1, ptr %cleanup.dest.slot, align 4
  br label %cleanup31

if.end5:                                          ; preds = %invoke.cont2
  %call6 = call noundef ptr @_ZN6icu_757UMemorynwEm(i64 noundef 16) #6
  %new.isnull = icmp eq ptr %call6, null
  store i1 false, ptr %cleanup.cond, align 1
  store i1 false, ptr %cleanup.cond7, align 1
  br i1 %new.isnull, label %new.cont, label %new.notnull

new.notnull:                                      ; preds = %if.end5
  store ptr %call6, ptr %saved-rvalue, align 8
  store i1 true, ptr %cleanup.cond, align 1
  call void @_ZN6icu_7512LocalPointerINS_13UnicodeStringEEC2EOS2_(ptr noundef nonnull align 8 dereferenceable(8) %agg.tmp, ptr noundef nonnull align 8 dereferenceable(8) %lpSrc) #6
  store i1 true, ptr %cleanup.cond7, align 1
  invoke void @_ZN6icu_759SPUStringC1ENS_12LocalPointerINS_13UnicodeStringEEE(ptr noundef nonnull align 8 dereferenceable(12) %call6, ptr noundef %agg.tmp)
          to label %invoke.cont9 unwind label %lpad8

invoke.cont9:                                     ; preds = %new.notnull
  store i1 false, ptr %cleanup.cond, align 1
  br label %new.cont

new.cont:                                         ; preds = %invoke.cont9, %if.end5
  %10 = phi ptr [ %call6, %invoke.cont9 ], [ null, %if.end5 ]
  %11 = load ptr, ptr %status.addr, align 8
  invoke void @_ZN6icu_7512LocalPointerINS_9SPUStringEEC2EPS1_R10UErrorCode(ptr noundef nonnull align 8 dereferenceable(8) %spuStr, ptr noundef %10, ptr noundef nonnull align 4 dereferenceable(4) %11)
          to label %invoke.cont10 unwind label %lpad8

invoke.cont10:                                    ; preds = %new.cont
  %cleanup.is_active = load i1, ptr %cleanup.cond7, align 1
  br i1 %cleanup.is_active, label %cleanup.action, label %cleanup.done

cleanup.action:                                   ; preds = %invoke.cont10
  call void @_ZN6icu_7512LocalPointerINS_13UnicodeStringEED2Ev(ptr noundef nonnull align 8 dereferenceable(8) %agg.tmp) #6
  br label %cleanup.done

cleanup.done:                                     ; preds = %cleanup.action, %invoke.cont10
  %call19 = invoke noundef ptr @_ZNK6icu_7516LocalPointerBaseINS_9SPUStringEE8getAliasEv(ptr noundef nonnull align 8 dereferenceable(8) %spuStr)
          to label %invoke.cont18 unwind label %lpad17

invoke.cont18:                                    ; preds = %cleanup.done
  store ptr %call19, ptr %hashedString, align 8
  %fVec = getelementptr inbounds %"class.icu_75::SPUStringPool", ptr %this1, i32 0, i32 0
  %12 = load ptr, ptr %fVec, align 8
  %call21 = invoke noundef ptr @_ZN6icu_7516LocalPointerBaseINS_9SPUStringEE6orphanEv(ptr noundef nonnull align 8 dereferenceable(8) %spuStr)
          to label %invoke.cont20 unwind label %lpad17

invoke.cont20:                                    ; preds = %invoke.cont18
  %13 = load ptr, ptr %status.addr, align 8
  invoke void @_ZN6icu_757UVector12adoptElementEPvR10UErrorCode(ptr noundef nonnull align 8 dereferenceable(40) %12, ptr noundef %call21, ptr noundef nonnull align 4 dereferenceable(4) %13)
          to label %invoke.cont22 unwind label %lpad17

invoke.cont22:                                    ; preds = %invoke.cont20
  %14 = load ptr, ptr %status.addr, align 8
  %15 = load i32, ptr %14, align 4
  %call24 = invoke noundef signext i8 @_ZL9U_FAILURE10UErrorCode(i32 noundef %15)
          to label %invoke.cont23 unwind label %lpad17

invoke.cont23:                                    ; preds = %invoke.cont22
  %tobool25 = icmp ne i8 %call24, 0
  br i1 %tobool25, label %if.then26, label %if.end27

if.then26:                                        ; preds = %invoke.cont23
  store ptr null, ptr %retval, align 8
  store i32 1, ptr %cleanup.dest.slot, align 4
  br label %cleanup

lpad8:                                            ; preds = %new.cont, %new.notnull
  %16 = landingpad { ptr, i32 }
          cleanup
  %17 = extractvalue { ptr, i32 } %16, 0
  store ptr %17, ptr %exn.slot, align 8
  %18 = extractvalue { ptr, i32 } %16, 1
  store i32 %18, ptr %ehselector.slot, align 4
  %cleanup.is_active11 = load i1, ptr %cleanup.cond7, align 1
  br i1 %cleanup.is_active11, label %cleanup.action12, label %cleanup.done13

cleanup.action12:                                 ; preds = %lpad8
  call void @_ZN6icu_7512LocalPointerINS_13UnicodeStringEED2Ev(ptr noundef nonnull align 8 dereferenceable(8) %agg.tmp) #6
  br label %cleanup.done13

cleanup.done13:                                   ; preds = %cleanup.action12, %lpad8
  %cleanup.is_active14 = load i1, ptr %cleanup.cond, align 1
  br i1 %cleanup.is_active14, label %cleanup.action15, label %cleanup.done16

cleanup.action15:                                 ; preds = %cleanup.done13
  %19 = load ptr, ptr %saved-rvalue, align 8
  call void @_ZN6icu_757UMemorydlEPv(ptr noundef %19) #6
  br label %cleanup.done16

cleanup.done16:                                   ; preds = %cleanup.action15, %cleanup.done13
  br label %ehcleanup

lpad17:                                           ; preds = %if.end27, %invoke.cont22, %invoke.cont20, %invoke.cont18, %cleanup.done
  %20 = landingpad { ptr, i32 }
          cleanup
  %21 = extractvalue { ptr, i32 } %20, 0
  store ptr %21, ptr %exn.slot, align 8
  %22 = extractvalue { ptr, i32 } %20, 1
  store i32 %22, ptr %ehselector.slot, align 4
  call void @_ZN6icu_7512LocalPointerINS_9SPUStringEED2Ev(ptr noundef nonnull align 8 dereferenceable(8) %spuStr) #6
  br label %ehcleanup

if.end27:                                         ; preds = %invoke.cont23
  %fHash28 = getelementptr inbounds %"class.icu_75::SPUStringPool", ptr %this1, i32 0, i32 1
  %23 = load ptr, ptr %fHash28, align 8
  %24 = load ptr, ptr %src.addr, align 8
  %25 = load ptr, ptr %hashedString, align 8
  %26 = load ptr, ptr %status.addr, align 8
  %call30 = invoke ptr @uhash_put_75(ptr noundef %23, ptr noundef %24, ptr noundef %25, ptr noundef %26)
          to label %invoke.cont29 unwind label %lpad17

invoke.cont29:                                    ; preds = %if.end27
  %27 = load ptr, ptr %hashedString, align 8
  store ptr %27, ptr %retval, align 8
  store i32 1, ptr %cleanup.dest.slot, align 4
  br label %cleanup

cleanup:                                          ; preds = %invoke.cont29, %if.then26
  call void @_ZN6icu_7512LocalPointerINS_9SPUStringEED2Ev(ptr noundef nonnull align 8 dereferenceable(8) %spuStr) #6
  br label %cleanup31

cleanup31:                                        ; preds = %cleanup, %if.then4, %if.then
  call void @_ZN6icu_7512LocalPointerINS_13UnicodeStringEED2Ev(ptr noundef nonnull align 8 dereferenceable(8) %lpSrc) #6
  %28 = load ptr, ptr %retval, align 8
  ret ptr %28

ehcleanup:                                        ; preds = %lpad17, %cleanup.done16, %lpad
  call void @_ZN6icu_7512LocalPointerINS_13UnicodeStringEED2Ev(ptr noundef nonnull align 8 dereferenceable(8) %lpSrc) #6
  br label %eh.resume

eh.resume:                                        ; preds = %ehcleanup
  %exn = load ptr, ptr %exn.slot, align 8
  %sel = load i32, ptr %ehselector.slot, align 4
  %lpad.val = insertvalue { ptr, i32 } poison, ptr %exn, 0
  %lpad.val32 = insertvalue { ptr, i32 } %lpad.val, i32 %sel, 1
  resume { ptr, i32 } %lpad.val32
}