; Function Attrs: mustprogress uwtable
define noundef ptr @_ZN6icu_7513SPUStringPool9addStringEPNS_13UnicodeStringER10UErrorCode(ptr nocapture noundef nonnull readonly align 8 dereferenceable(16) %this, ptr noundef %src, ptr noundef nonnull align 4 dereferenceable(4) %status) local_unnamed_addr #2 align 2 personality ptr @__gxx_personality_v0 {
entry:
  %agg.tmp = alloca %"class.icu_75::LocalPointer", align 8
  %0 = load i32, ptr %status, align 4
  %cmp.i = icmp slt i32 %0, 1
  br i1 %cmp.i, label %if.end, label %cleanup31

lpad:                                             ; preds = %if.end
  %1 = landingpad { ptr, i32 }
          cleanup
  br label %ehcleanup

if.end:                                           ; preds = %entry
  %fHash = getelementptr inbounds i8, ptr %this, i64 8
  %2 = load ptr, ptr %fHash, align 8
  %call3 = invoke ptr @uhash_get_75(ptr noundef %2, ptr noundef %src)
          to label %invoke.cont2 unwind label %lpad

invoke.cont2:                                     ; preds = %if.end
  %cmp.not = icmp eq ptr %call3, null
  br i1 %cmp.not, label %if.end5, label %cleanup31

if.end5:                                          ; preds = %invoke.cont2
  %call6 = tail call noundef ptr @_ZN6icu_757UMemorynwEm(i64 noundef 16) #10
  %new.isnull.not = icmp eq ptr %call6, null
  br i1 %new.isnull.not, label %new.cont, label %new.notnull

new.notnull:                                      ; preds = %if.end5
  store ptr %src, ptr %agg.tmp, align 8
  invoke void @_ZN6icu_759SPUStringC1ENS_12LocalPointerINS_13UnicodeStringEEE(ptr noundef nonnull align 8 dereferenceable(12) %call6, ptr noundef nonnull %agg.tmp)
          to label %cleanup.action unwind label %cleanup.action12

new.cont:                                         ; preds = %if.end5
  %3 = load i32, ptr %status, align 4
  %cmp.i.i = icmp sgt i32 %3, 0
  br i1 %cmp.i.i, label %cleanup.done, label %if.then.i

if.then.i:                                        ; preds = %new.cont
  store i32 7, ptr %status, align 4
  br label %cleanup.done

cleanup.action:                                   ; preds = %new.notnull
  %4 = load ptr, ptr %agg.tmp, align 8
  %isnull.i = icmp eq ptr %4, null
  br i1 %isnull.i, label %cleanup.done, label %delete.notnull.i

delete.notnull.i:                                 ; preds = %cleanup.action
  %vtable.i = load ptr, ptr %4, align 8
  %vfn.i = getelementptr inbounds i8, ptr %vtable.i, i64 8
  %5 = load ptr, ptr %vfn.i, align 8
  call void %5(ptr noundef nonnull align 8 dereferenceable(64) %4) #10
  br label %cleanup.done

cleanup.done:                                     ; preds = %new.cont, %if.then.i, %delete.notnull.i, %cleanup.action
  %lpSrc.sroa.0.04345 = phi ptr [ null, %cleanup.action ], [ null, %delete.notnull.i ], [ %src, %if.then.i ], [ %src, %new.cont ]
  %6 = load ptr, ptr %this, align 8
  invoke void @_ZN6icu_757UVector12adoptElementEPvR10UErrorCode(ptr noundef nonnull align 8 dereferenceable(40) %6, ptr noundef %call6, ptr noundef nonnull align 4 dereferenceable(4) %status)
          to label %invoke.cont22 unwind label %_ZN6icu_7512LocalPointerINS_9SPUStringEED2Ev.exit

invoke.cont22:                                    ; preds = %cleanup.done
  %7 = load i32, ptr %status, align 4
  %cmp.i12 = icmp slt i32 %7, 1
  br i1 %cmp.i12, label %if.end27, label %cleanup31

cleanup.action12:                                 ; preds = %new.notnull
  %8 = landingpad { ptr, i32 }
          cleanup
  %9 = load ptr, ptr %agg.tmp, align 8
  %isnull.i14 = icmp eq ptr %9, null
  br i1 %isnull.i14, label %ehcleanup.thread, label %delete.notnull.i15

delete.notnull.i15:                               ; preds = %cleanup.action12
  %vtable.i16 = load ptr, ptr %9, align 8
  %vfn.i17 = getelementptr inbounds i8, ptr %vtable.i16, i64 8
  %10 = load ptr, ptr %vfn.i17, align 8
  call void %10(ptr noundef nonnull align 8 dereferenceable(64) %9) #10
  br label %ehcleanup.thread

ehcleanup.thread:                                 ; preds = %delete.notnull.i15, %cleanup.action12
  call void @_ZN6icu_757UMemorydlEPv(ptr noundef nonnull %call6) #10
  br label %_ZN6icu_7512LocalPointerINS_13UnicodeStringEED2Ev.exit33

_ZN6icu_7512LocalPointerINS_9SPUStringEED2Ev.exit: ; preds = %cleanup.done, %if.end27
  %11 = landingpad { ptr, i32 }
          cleanup
  br label %ehcleanup

if.end27:                                         ; preds = %invoke.cont22
  %12 = load ptr, ptr %fHash, align 8
  %call30 = invoke ptr @uhash_put_75(ptr noundef %12, ptr noundef %src, ptr noundef %call6, ptr noundef nonnull %status)
          to label %cleanup31 unwind label %_ZN6icu_7512LocalPointerINS_9SPUStringEED2Ev.exit

cleanup31:                                        ; preds = %if.end27, %invoke.cont22, %invoke.cont2, %entry
  %lpSrc.sroa.0.1 = phi ptr [ %src, %invoke.cont2 ], [ %src, %entry ], [ %lpSrc.sroa.0.04345, %invoke.cont22 ], [ %lpSrc.sroa.0.04345, %if.end27 ]
  %retval.1 = phi ptr [ %call3, %invoke.cont2 ], [ null, %entry ], [ null, %invoke.cont22 ], [ %call6, %if.end27 ]
  %isnull.i24 = icmp eq ptr %lpSrc.sroa.0.1, null
  br i1 %isnull.i24, label %_ZN6icu_7512LocalPointerINS_13UnicodeStringEED2Ev.exit28, label %delete.notnull.i25

delete.notnull.i25:                               ; preds = %cleanup31
  %vtable.i26 = load ptr, ptr %lpSrc.sroa.0.1, align 8
  %vfn.i27 = getelementptr inbounds i8, ptr %vtable.i26, i64 8
  %13 = load ptr, ptr %vfn.i27, align 8
  call void %13(ptr noundef nonnull align 8 dereferenceable(64) %lpSrc.sroa.0.1) #10
  br label %_ZN6icu_7512LocalPointerINS_13UnicodeStringEED2Ev.exit28

_ZN6icu_7512LocalPointerINS_13UnicodeStringEED2Ev.exit28: ; preds = %cleanup31, %delete.notnull.i25
  ret ptr %retval.1

ehcleanup:                                        ; preds = %_ZN6icu_7512LocalPointerINS_9SPUStringEED2Ev.exit, %lpad
  %lpSrc.sroa.0.2 = phi ptr [ %lpSrc.sroa.0.04345, %_ZN6icu_7512LocalPointerINS_9SPUStringEED2Ev.exit ], [ %src, %lpad ]
  %.pn = phi { ptr, i32 } [ %11, %_ZN6icu_7512LocalPointerINS_9SPUStringEED2Ev.exit ], [ %1, %lpad ]
  %isnull.i29 = icmp eq ptr %lpSrc.sroa.0.2, null
  br i1 %isnull.i29, label %_ZN6icu_7512LocalPointerINS_13UnicodeStringEED2Ev.exit33, label %delete.notnull.i30

delete.notnull.i30:                               ; preds = %ehcleanup
  %vtable.i31 = load ptr, ptr %lpSrc.sroa.0.2, align 8
  %vfn.i32 = getelementptr inbounds i8, ptr %vtable.i31, i64 8
  %14 = load ptr, ptr %vfn.i32, align 8
  call void %14(ptr noundef nonnull align 8 dereferenceable(64) %lpSrc.sroa.0.2) #10
  br label %_ZN6icu_7512LocalPointerINS_13UnicodeStringEED2Ev.exit33

_ZN6icu_7512LocalPointerINS_13UnicodeStringEED2Ev.exit33: ; preds = %ehcleanup.thread, %ehcleanup, %delete.notnull.i30
  %.pn49 = phi { ptr, i32 } [ %8, %ehcleanup.thread ], [ %.pn, %ehcleanup ], [ %.pn, %delete.notnull.i30 ]
  resume { ptr, i32 } %.pn49
}